; Function Attrs: nounwind uwtable
define i32 @uv_fs_mkdir(ptr noundef %loop, ptr noundef %req, ptr noundef %path, i32 noundef %mode, ptr noundef %cb) local_unnamed_addr #0 {
entry:
  %cmp = icmp eq ptr %req, null
  br i1 %cmp, label %do.end32, label %do.body1

do.body1:                                         ; preds = %entry
  %type = getelementptr inbounds nuw i8, ptr %req, i64 8
  store i32 6, ptr %type, align 8
  %fs_type = getelementptr inbounds nuw i8, ptr %req, i64 64
  store i32 19, ptr %fs_type, align 8
  %result = getelementptr inbounds nuw i8, ptr %req, i64 88
  %loop2 = getelementptr inbounds nuw i8, ptr %req, i64 72
  tail call void @llvm.memset.p0.i64(ptr noundef nonnull align 8 dereferenceable(16) %result, i8 0, i64 16, i1 false)
  store ptr %loop, ptr %loop2, align 8
  %path3 = getelementptr inbounds nuw i8, ptr %req, i64 104
  store ptr null, ptr %path3, align 8
  %new_path = getelementptr inbounds nuw i8, ptr %req, i64 272
  store ptr null, ptr %new_path, align 8
  %bufs = getelementptr inbounds nuw i8, ptr %req, i64 296
  store ptr null, ptr %bufs, align 8
  %cb4 = getelementptr inbounds nuw i8, ptr %req, i64 80
  store ptr %cb, ptr %cb4, align 8
  %cmp7 = icmp eq ptr %cb, null
  br i1 %cmp7, label %if.else29, label %if.else

if.else:                                          ; preds = %do.body1
  %call = tail call ptr @uv__strdup(ptr noundef %path) #15
  store ptr %call, ptr %path3, align 8
  %cmp12 = icmp eq ptr %call, null
  br i1 %cmp12, label %do.end32, label %if.then19

if.then19:                                        ; preds = %if.else
  %mode17 = getelementptr inbounds nuw i8, ptr %req, i64 288
  store i32 %mode, ptr %mode17, align 8
  %call20 = tail call i32 @uv__iou_fs_mkdir(ptr noundef %loop, ptr noundef nonnull %req) #15
  %tobool.not = icmp eq i32 %call20, 0
  br i1 %tobool.not, label %do.body27, label %do.end32

do.body27:                                        ; preds = %if.then19
  %active_reqs = getelementptr inbounds nuw i8, ptr %loop, i64 32
  %0 = load i32, ptr %active_reqs, align 8
  %inc = add i32 %0, 1
  store i32 %inc, ptr %active_reqs, align 8
  %work_req = getelementptr inbounds nuw i8, ptr %req, i64 336
  tail call void @uv__work_submit(ptr noundef %loop, ptr noundef nonnull %work_req, i32 noundef 1, ptr noundef nonnull @uv__fs_work, ptr noundef nonnull @uv__fs_done) #15
  br label %do.end32

if.else29:                                        ; preds = %do.body1
  store ptr %path, ptr %path3, align 8
  %mode1725 = getelementptr inbounds nuw i8, ptr %req, i64 288
  store i32 %mode, ptr %mode1725, align 8
  %work_req30 = getelementptr inbounds nuw i8, ptr %req, i64 336
  tail call void @uv__fs_work(ptr noundef nonnull %work_req30)
  %1 = load i64, ptr %result, align 8
  %conv = trunc i64 %1 to i32
  br label %do.end32

do.end32:                                         ; preds = %if.then19, %if.else, %entry, %if.else29, %do.body27
  %retval.0 = phi i32 [ 0, %do.body27 ], [ %conv, %if.else29 ], [ -22, %entry ], [ -12, %if.else ], [ 0, %if.then19 ]
  ret i32 %retval.0
}